; Function Attrs: nounwind uwtable
define hidden void @zim_DOMXPath_registerNamespace(ptr noundef readonly captures(none) %0, ptr noundef writeonly captures(none) %1) local_unnamed_addr #0 {
  %3 = alloca i64, align 8
  %4 = alloca i64, align 8
  %5 = alloca ptr, align 8
  %6 = alloca ptr, align 8
  call void @llvm.lifetime.start.p0(i64 8, ptr nonnull %3) #12
  call void @llvm.lifetime.start.p0(i64 8, ptr nonnull %4) #12
  call void @llvm.lifetime.start.p0(i64 8, ptr nonnull %5) #12
  call void @llvm.lifetime.start.p0(i64 8, ptr nonnull %6) #12
  %7 = getelementptr inbounds nuw i8, ptr %0, i64 44
  %8 = load i32, ptr %7, align 4, !tbaa !21
  %9 = call i32 (i32, ptr, ...) @zend_parse_parameters(i32 noundef %8, ptr noundef nonnull @.str, ptr noundef nonnull %5, ptr noundef nonnull %3, ptr noundef nonnull %6, ptr noundef nonnull %4) #12
  %10 = icmp eq i32 %9, -1
  br i1 %10, label %11, label %14

11:                                               ; preds = %2
  %12 = load ptr, ptr getelementptr inbounds nuw (i8, ptr @executor_globals, i64 960), align 8, !tbaa !22
  %13 = icmp ne ptr %12, null
  call void @llvm.assume(i1 %13)
  br label %30

14:                                               ; preds = %2
  %15 = getelementptr inbounds nuw i8, ptr %0, i64 32
  %16 = load ptr, ptr %15, align 8, !tbaa !21
  %17 = getelementptr inbounds i8, ptr %16, i64 -24
  %18 = load ptr, ptr %17, align 8, !tbaa !4
  %19 = icmp eq ptr %18, null
  br i1 %19, label %20, label %23

20:                                               ; preds = %14
  call void (ptr, ptr, ...) @zend_throw_error(ptr noundef null, ptr noundef nonnull @.str.1) #12
  %21 = load ptr, ptr getelementptr inbounds nuw (i8, ptr @executor_globals, i64 960), align 8, !tbaa !22
  %22 = icmp ne ptr %21, null
  call void @llvm.assume(i1 %22)
  br label %30

23:                                               ; preds = %14
  %24 = load ptr, ptr %5, align 8, !tbaa !86
  %25 = load ptr, ptr %6, align 8, !tbaa !86
  %26 = call i32 @xmlXPathRegisterNs(ptr noundef nonnull %18, ptr noundef %24, ptr noundef %25) #12
  %.not = icmp eq i32 %26, 0
  %27 = getelementptr inbounds nuw i8, ptr %1, i64 8
  br i1 %.not, label %29, label %28

28:                                               ; preds = %23
  store i32 2, ptr %27, align 8, !tbaa !21
  br label %30

29:                                               ; preds = %23
  store i32 3, ptr %27, align 8, !tbaa !21
  br label %30

30:                                               ; preds = %20, %28, %29, %11
  call void @llvm.lifetime.end.p0(i64 8, ptr nonnull %6) #12
  call void @llvm.lifetime.end.p0(i64 8, ptr nonnull %5) #12
  call void @llvm.lifetime.end.p0(i64 8, ptr nonnull %4) #12
  call void @llvm.lifetime.end.p0(i64 8, ptr nonnull %3) #12
  ret void
}